target datalayout = "e-m:e-p270:32:32-p271:32:32-p272:64:64-i64:64-i128:128-f80:128-n8:16:32:64-S128"
target triple = "x86_64-pc-linux-gnu"

%struct.ObjectAddress = type { i32, i32, i32 }
%struct.RelationData = type { %struct.RelFileLocator, ptr, i32, i32, i8, i8, i8, i8, i8, i32, i32, i32, i32, ptr, ptr, i32, %struct.LockInfoData, ptr, ptr, ptr, ptr, ptr, i8, ptr, ptr, ptr, ptr, ptr, ptr, i32, ptr, i8, ptr, ptr, i32, i8, i32, ptr, i8, ptr, ptr, ptr, ptr, ptr, ptr, ptr, i32, ptr, ptr, ptr, ptr, ptr, ptr, ptr, ptr, ptr, ptr, ptr, ptr, ptr, ptr, ptr, ptr, ptr, ptr, ptr, i32, i8, ptr }
%struct.RelFileLocator = type { i32, i32, i32 }
%struct.LockInfoData = type { %struct.LockRelId }
%struct.LockRelId = type { i32, i32 }
%struct.ScanKeyData = type { i32, i16, i16, i32, i32, %struct.FmgrInfo, i64 }
%struct.FmgrInfo = type { ptr, i32, i16, i8, i8, i8, ptr, ptr, ptr }

@criticalSharedRelcachesBuilt = external global i8, align 1

; Function Attrs: inlinehint nounwind uwtable
define internal ptr @DatumGetPointer(i64 noundef %0) #4 {
  %2 = alloca i64, align 8
  store i64 %0, ptr %2, align 8
  %3 = load i64, ptr %2, align 8
  %4 = inttoptr i64 %3 to ptr
  ret ptr %4
}

; Function Attrs: inlinehint nounwind uwtable
define internal i64 @PointerGetDatum(ptr noundef %0) #4 {
  %2 = alloca ptr, align 8
  store ptr %0, ptr %2, align 8
  %3 = load ptr, ptr %2, align 8
  %4 = ptrtoint ptr %3 to i64
  ret i64 %4
}

; Function Attrs: inlinehint nounwind uwtable
define internal i64 @Int32GetDatum(i32 noundef %0) #4 {
  %2 = alloca i32, align 4
  store i32 %0, ptr %2, align 4
  %3 = load i32, ptr %2, align 4
  %4 = sext i32 %3 to i64
  ret i64 %4
}

; Function Attrs: inlinehint nounwind uwtable
define internal i64 @ObjectIdGetDatum(i32 noundef %0) #4 {
  %2 = alloca i32, align 4
  store i32 %0, ptr %2, align 4
  %3 = load i32, ptr %2, align 4
  %4 = zext i32 %3 to i64
  ret i64 %4
}

; Function Attrs: nounwind uwtable
define internal ptr @GetSharedSecurityLabel(ptr noundef %0, ptr noundef %1) #0 {
  %3 = alloca ptr, align 8
  %4 = alloca ptr, align 8
  %5 = alloca ptr, align 8
  %6 = alloca [3 x %struct.ScanKeyData], align 16
  %7 = alloca ptr, align 8
  %8 = alloca ptr, align 8
  %9 = alloca i64, align 8
  %10 = alloca i8, align 1
  %11 = alloca ptr, align 8
  store ptr %0, ptr %3, align 8
  store ptr %1, ptr %4, align 8
  call void @llvm.lifetime.start.p0(i64 8, ptr %5) #8
  call void @llvm.lifetime.start.p0(i64 216, ptr %6) #8
  call void @llvm.lifetime.start.p0(i64 8, ptr %7) #8
  call void @llvm.lifetime.start.p0(i64 8, ptr %8) #8
  call void @llvm.lifetime.start.p0(i64 8, ptr %9) #8
  call void @llvm.lifetime.start.p0(i64 1, ptr %10) #8
  call void @llvm.lifetime.start.p0(i64 8, ptr %11) #8
  store ptr null, ptr %11, align 8
  %12 = getelementptr inbounds [3 x %struct.ScanKeyData], ptr %6, i64 0, i64 0
  %13 = load ptr, ptr %3, align 8
  %14 = getelementptr inbounds nuw %struct.ObjectAddress, ptr %13, i32 0, i32 1
  %15 = load i32, ptr %14, align 4
  %16 = call i64 @ObjectIdGetDatum(i32 noundef %15)
  call void @ScanKeyInit(ptr noundef %12, i16 noundef signext 1, i16 noundef zeroext 3, i32 noundef 184, i64 noundef %16)
  %17 = getelementptr inbounds [3 x %struct.ScanKeyData], ptr %6, i64 0, i64 1
  %18 = load ptr, ptr %3, align 8
  %19 = getelementptr inbounds nuw %struct.ObjectAddress, ptr %18, i32 0, i32 0
  %20 = load i32, ptr %19, align 4
  %21 = call i64 @ObjectIdGetDatum(i32 noundef %20)
  call void @ScanKeyInit(ptr noundef %17, i16 noundef signext 2, i16 noundef zeroext 3, i32 noundef 184, i64 noundef %21)
  %22 = getelementptr inbounds [3 x %struct.ScanKeyData], ptr %6, i64 0, i64 2
  %23 = load ptr, ptr %4, align 8
  %24 = call ptr @cstring_to_text(ptr noundef %23)
  %25 = call i64 @PointerGetDatum(ptr noundef %24)
  call void @ScanKeyInit(ptr noundef %22, i16 noundef signext 3, i16 noundef zeroext 3, i32 noundef 67, i64 noundef %25)
  %26 = call ptr @table_open(i32 noundef 3592, i32 noundef 1)
  store ptr %26, ptr %5, align 8
  %27 = load ptr, ptr %5, align 8
  %28 = load i8, ptr @criticalSharedRelcachesBuilt, align 1, !range !6, !noundef !7
  %29 = trunc i8 %28 to i1
  %30 = getelementptr inbounds [3 x %struct.ScanKeyData], ptr %6, i64 0, i64 0
  %31 = call ptr @systable_beginscan(ptr noundef %27, i32 noundef 3593, i1 noundef zeroext %29, ptr noundef null, i32 noundef 3, ptr noundef %30)
  store ptr %31, ptr %7, align 8
  %32 = load ptr, ptr %7, align 8
  %33 = call ptr @systable_getnext(ptr noundef %32)
  store ptr %33, ptr %8, align 8
  %34 = load ptr, ptr %8, align 8
  %35 = icmp ne ptr %34, null
  br i1 %35, label %36, label %49

36:                                               ; preds = %2
  %37 = load ptr, ptr %8, align 8
  %38 = load ptr, ptr %5, align 8
  %39 = getelementptr inbounds nuw %struct.RelationData, ptr %38, i32 0, i32 14
  %40 = load ptr, ptr %39, align 8
  %41 = call i64 @heap_getattr(ptr noundef %37, i32 noundef 4, ptr noundef %40, ptr noundef %10)
  store i64 %41, ptr %9, align 8
  %42 = load i8, ptr %10, align 1, !range !6, !noundef !7
  %43 = trunc i8 %42 to i1
  br i1 %43, label %48, label %44

44:                                               ; preds = %36
  %45 = load i64, ptr %9, align 8
  %46 = call ptr @DatumGetPointer(i64 noundef %45)
  %47 = call ptr @text_to_cstring(ptr noundef %46)
  store ptr %47, ptr %11, align 8
  br label %48

48:                                               ; preds = %44, %36
  br label %49

49:                                               ; preds = %48, %2
  %50 = load ptr, ptr %7, align 8
  call void @systable_endscan(ptr noundef %50)
  %51 = load ptr, ptr %5, align 8
  call void @table_close(ptr noundef %51, i32 noundef 1)
  %52 = load ptr, ptr %11, align 8
  call void @llvm.lifetime.end.p0(i64 8, ptr %11) #8
  call void @llvm.lifetime.end.p0(i64 1, ptr %10) #8
  call void @llvm.lifetime.end.p0(i64 8, ptr %9) #8
  call void @llvm.lifetime.end.p0(i64 8, ptr %8) #8
  call void @llvm.lifetime.end.p0(i64 8, ptr %7) #8
  call void @llvm.lifetime.end.p0(i64 216, ptr %6) #8
  call void @llvm.lifetime.end.p0(i64 8, ptr %5) #8
  ret ptr %52
}

; Function Attrs: nounwind uwtable
define dso_local ptr @GetSecurityLabel(ptr noundef %0, ptr noundef %1) #0 {
  %3 = alloca ptr, align 8
  %4 = alloca ptr, align 8
  %5 = alloca ptr, align 8
  %6 = alloca ptr, align 8
  %7 = alloca [4 x %struct.ScanKeyData], align 16
  %8 = alloca ptr, align 8
  %9 = alloca ptr, align 8
  %10 = alloca i64, align 8
  %11 = alloca i8, align 1
  %12 = alloca ptr, align 8
  %13 = alloca i32, align 4
  store ptr %0, ptr %4, align 8
  store ptr %1, ptr %5, align 8
  call void @llvm.lifetime.start.p0(i64 8, ptr %6) #8
  call void @llvm.lifetime.start.p0(i64 288, ptr %7) #8
  call void @llvm.lifetime.start.p0(i64 8, ptr %8) #8
  call void @llvm.lifetime.start.p0(i64 8, ptr %9) #8
  call void @llvm.lifetime.start.p0(i64 8, ptr %10) #8
  call void @llvm.lifetime.start.p0(i64 1, ptr %11) #8
  call void @llvm.lifetime.start.p0(i64 8, ptr %12) #8
  store ptr null, ptr %12, align 8
  %14 = load ptr, ptr %4, align 8
  %15 = getelementptr inbounds nuw %struct.ObjectAddress, ptr %14, i32 0, i32 0
  %16 = load i32, ptr %15, align 4
  %17 = call zeroext i1 @IsSharedRelation(i32 noundef %16)
  br i1 %17, label %18, label %22

18:                                               ; preds = %2
  %19 = load ptr, ptr %4, align 8
  %20 = load ptr, ptr %5, align 8
  %21 = call ptr @GetSharedSecurityLabel(ptr noundef %19, ptr noundef %20)
  store ptr %21, ptr %3, align 8
  store i32 1, ptr %13, align 4
  br label %67

22:                                               ; preds = %2
  %23 = getelementptr inbounds [4 x %struct.ScanKeyData], ptr %7, i64 0, i64 0
  %24 = load ptr, ptr %4, align 8
  %25 = getelementptr inbounds nuw %struct.ObjectAddress, ptr %24, i32 0, i32 1
  %26 = load i32, ptr %25, align 4
  %27 = call i64 @ObjectIdGetDatum(i32 noundef %26)
  call void @ScanKeyInit(ptr noundef %23, i16 noundef signext 1, i16 noundef zeroext 3, i32 noundef 184, i64 noundef %27)
  %28 = getelementptr inbounds [4 x %struct.ScanKeyData], ptr %7, i64 0, i64 1
  %29 = load ptr, ptr %4, align 8
  %30 = getelementptr inbounds nuw %struct.ObjectAddress, ptr %29, i32 0, i32 0
  %31 = load i32, ptr %30, align 4
  %32 = call i64 @ObjectIdGetDatum(i32 noundef %31)
  call void @ScanKeyInit(ptr noundef %28, i16 noundef signext 2, i16 noundef zeroext 3, i32 noundef 184, i64 noundef %32)
  %33 = getelementptr inbounds [4 x %struct.ScanKeyData], ptr %7, i64 0, i64 2
  %34 = load ptr, ptr %4, align 8
  %35 = getelementptr inbounds nuw %struct.ObjectAddress, ptr %34, i32 0, i32 2
  %36 = load i32, ptr %35, align 4
  %37 = call i64 @Int32GetDatum(i32 noundef %36)
  call void @ScanKeyInit(ptr noundef %33, i16 noundef signext 3, i16 noundef zeroext 3, i32 noundef 65, i64 noundef %37)
  %38 = getelementptr inbounds [4 x %struct.ScanKeyData], ptr %7, i64 0, i64 3
  %39 = load ptr, ptr %5, align 8
  %40 = call ptr @cstring_to_text(ptr noundef %39)
  %41 = call i64 @PointerGetDatum(ptr noundef %40)
  call void @ScanKeyInit(ptr noundef %38, i16 noundef signext 4, i16 noundef zeroext 3, i32 noundef 67, i64 noundef %41)
  %42 = call ptr @table_open(i32 noundef 3596, i32 noundef 1)
  store ptr %42, ptr %6, align 8
  %43 = load ptr, ptr %6, align 8
  %44 = getelementptr inbounds [4 x %struct.ScanKeyData], ptr %7, i64 0, i64 0
  %45 = call ptr @systable_beginscan(ptr noundef %43, i32 noundef 3597, i1 noundef zeroext true, ptr noundef null, i32 noundef 4, ptr noundef %44)
  store ptr %45, ptr %8, align 8
  %46 = load ptr, ptr %8, align 8
  %47 = call ptr @systable_getnext(ptr noundef %46)
  store ptr %47, ptr %9, align 8
  %48 = load ptr, ptr %9, align 8
  %49 = icmp ne ptr %48, null
  br i1 %49, label %50, label %63

50:                                               ; preds = %22
  %51 = load ptr, ptr %9, align 8
  %52 = load ptr, ptr %6, align 8
  %53 = getelementptr inbounds nuw %struct.RelationData, ptr %52, i32 0, i32 14
  %54 = load ptr, ptr %53, align 8
  %55 = call i64 @heap_getattr(ptr noundef %51, i32 noundef 5, ptr noundef %54, ptr noundef %11)
  store i64 %55, ptr %10, align 8
  %56 = load i8, ptr %11, align 1, !range !6, !noundef !7
  %57 = trunc i8 %56 to i1
  br i1 %57, label %62, label %58

58:                                               ; preds = %50
  %59 = load i64, ptr %10, align 8
  %60 = call ptr @DatumGetPointer(i64 noundef %59)
  %61 = call ptr @text_to_cstring(ptr noundef %60)
  store ptr %61, ptr %12, align 8
  br label %62

62:                                               ; preds = %58, %50
  br label %63

63:                                               ; preds = %62, %22
  %64 = load ptr, ptr %8, align 8
  call void @systable_endscan(ptr noundef %64)
  %65 = load ptr, ptr %6, align 8
  call void @table_close(ptr noundef %65, i32 noundef 1)
  %66 = load ptr, ptr %12, align 8
  store ptr %66, ptr %3, align 8
  store i32 1, ptr %13, align 4
  br label %67

67:                                               ; preds = %63, %18
  call void @llvm.lifetime.end.p0(i64 8, ptr %12) #8
  call void @llvm.lifetime.end.p0(i64 1, ptr %11) #8
  call void @llvm.lifetime.end.p0(i64 8, ptr %10) #8
  call void @llvm.lifetime.end.p0(i64 8, ptr %9) #8
  call void @llvm.lifetime.end.p0(i64 8, ptr %8) #8
  call void @llvm.lifetime.end.p0(i64 288, ptr %7) #8
  call void @llvm.lifetime.end.p0(i64 8, ptr %6) #8
  %68 = load ptr, ptr %3, align 8
  ret ptr %68
}