; Function Attrs: nounwind uwtable
define dso_local ptr @GetSecurityLabel(ptr noundef readonly captures(none) %0, ptr noundef %1) local_unnamed_addr #0 {
  %3 = alloca [3 x %struct.ScanKeyData], align 16
  %4 = alloca i8, align 1
  %5 = alloca [4 x %struct.ScanKeyData], align 16
  %6 = alloca i8, align 1
  call void @llvm.lifetime.start.p0(i64 288, ptr nonnull %5) #8
  call void @llvm.lifetime.start.p0(i64 1, ptr nonnull %6) #8
  %7 = load i32, ptr %0, align 4
  %8 = tail call zeroext i1 @IsSharedRelation(i32 noundef %7) #8
  br i1 %8, label %9, label %33

9:                                                ; preds = %2
  call void @llvm.lifetime.start.p0(i64 216, ptr nonnull %3) #8
  call void @llvm.lifetime.start.p0(i64 1, ptr nonnull %4) #8
  %10 = getelementptr inbounds nuw i8, ptr %0, i64 4
  %11 = load i32, ptr %10, align 4
  %12 = zext i32 %11 to i64
  call void @ScanKeyInit(ptr noundef nonnull %3, i16 noundef signext 1, i16 noundef zeroext 3, i32 noundef 184, i64 noundef %12) #8
  %13 = getelementptr inbounds nuw i8, ptr %3, i64 72
  %14 = load i32, ptr %0, align 4
  %15 = zext i32 %14 to i64
  call void @ScanKeyInit(ptr noundef nonnull %13, i16 noundef signext 2, i16 noundef zeroext 3, i32 noundef 184, i64 noundef %15) #8
  %16 = getelementptr inbounds nuw i8, ptr %3, i64 144
  %17 = call ptr @cstring_to_text(ptr noundef %1) #8
  %18 = ptrtoint ptr %17 to i64
  call void @ScanKeyInit(ptr noundef nonnull %16, i16 noundef signext 3, i16 noundef zeroext 3, i32 noundef 67, i64 noundef %18) #8
  %19 = call ptr @table_open(i32 noundef 3592, i32 noundef 1) #8
  %20 = load i8, ptr @criticalSharedRelcachesBuilt, align 1, !range !4, !noundef !5
  %21 = trunc nuw i8 %20 to i1
  %22 = call ptr @systable_beginscan(ptr noundef %19, i32 noundef 3593, i1 noundef zeroext %21, ptr noundef null, i32 noundef 3, ptr noundef nonnull %3) #8
  %23 = call ptr @systable_getnext(ptr noundef %22) #8
  %.not.i = icmp eq ptr %23, null
  br i1 %.not.i, label %GetSharedSecurityLabel.exit, label %24

24:                                               ; preds = %9
  %25 = getelementptr inbounds nuw i8, ptr %19, i64 64
  %26 = load ptr, ptr %25, align 8
  %27 = call fastcc i64 @heap_getattr(ptr noundef %23, i32 noundef 4, ptr noundef %26, ptr noundef %4)
  %28 = load i8, ptr %4, align 1, !range !4, !noundef !5
  %29 = trunc nuw i8 %28 to i1
  br i1 %29, label %GetSharedSecurityLabel.exit, label %30

30:                                               ; preds = %24
  %31 = inttoptr i64 %27 to ptr
  %32 = call ptr @text_to_cstring(ptr noundef %31) #8
  br label %GetSharedSecurityLabel.exit

GetSharedSecurityLabel.exit:                      ; preds = %9, %24, %30
  %.0.i = phi ptr [ null, %24 ], [ %32, %30 ], [ null, %9 ]
  call void @systable_endscan(ptr noundef %22) #8
  call void @table_close(ptr noundef %19, i32 noundef 1) #8
  call void @llvm.lifetime.end.p0(i64 1, ptr nonnull %4) #8
  call void @llvm.lifetime.end.p0(i64 216, ptr nonnull %3) #8
  br label %60

33:                                               ; preds = %2
  %34 = getelementptr inbounds nuw i8, ptr %0, i64 4
  %35 = load i32, ptr %34, align 4
  %36 = zext i32 %35 to i64
  call void @ScanKeyInit(ptr noundef nonnull %5, i16 noundef signext 1, i16 noundef zeroext 3, i32 noundef 184, i64 noundef %36) #8
  %37 = getelementptr inbounds nuw i8, ptr %5, i64 72
  %38 = load i32, ptr %0, align 4
  %39 = zext i32 %38 to i64
  call void @ScanKeyInit(ptr noundef nonnull %37, i16 noundef signext 2, i16 noundef zeroext 3, i32 noundef 184, i64 noundef %39) #8
  %40 = getelementptr inbounds nuw i8, ptr %5, i64 144
  %41 = getelementptr inbounds nuw i8, ptr %0, i64 8
  %42 = load i32, ptr %41, align 4
  %43 = sext i32 %42 to i64
  call void @ScanKeyInit(ptr noundef nonnull %40, i16 noundef signext 3, i16 noundef zeroext 3, i32 noundef 65, i64 noundef %43) #8
  %44 = getelementptr inbounds nuw i8, ptr %5, i64 216
  %45 = call ptr @cstring_to_text(ptr noundef %1) #8
  %46 = ptrtoint ptr %45 to i64
  call void @ScanKeyInit(ptr noundef nonnull %44, i16 noundef signext 4, i16 noundef zeroext 3, i32 noundef 67, i64 noundef %46) #8
  %47 = call ptr @table_open(i32 noundef 3596, i32 noundef 1) #8
  %48 = call ptr @systable_beginscan(ptr noundef %47, i32 noundef 3597, i1 noundef zeroext true, ptr noundef null, i32 noundef 4, ptr noundef nonnull %5) #8
  %49 = call ptr @systable_getnext(ptr noundef %48) #8
  %.not = icmp eq ptr %49, null
  br i1 %.not, label %59, label %50

50:                                               ; preds = %33
  %51 = getelementptr inbounds nuw i8, ptr %47, i64 64
  %52 = load ptr, ptr %51, align 8
  %53 = call fastcc i64 @heap_getattr(ptr noundef %49, i32 noundef 5, ptr noundef %52, ptr noundef %6)
  %54 = load i8, ptr %6, align 1, !range !4, !noundef !5
  %55 = trunc nuw i8 %54 to i1
  br i1 %55, label %59, label %56

56:                                               ; preds = %50
  %57 = inttoptr i64 %53 to ptr
  %58 = call ptr @text_to_cstring(ptr noundef %57) #8
  br label %59

59:                                               ; preds = %50, %56, %33
  %.0 = phi ptr [ null, %50 ], [ %58, %56 ], [ null, %33 ]
  call void @systable_endscan(ptr noundef %48) #8
  call void @table_close(ptr noundef %47, i32 noundef 1) #8
  br label %60

60:                                               ; preds = %59, %GetSharedSecurityLabel.exit
  %.016 = phi ptr [ %.0.i, %GetSharedSecurityLabel.exit ], [ %.0, %59 ]
  call void @llvm.lifetime.end.p0(i64 1, ptr nonnull %6) #8
  call void @llvm.lifetime.end.p0(i64 288, ptr nonnull %5) #8
  ret ptr %.016
}